target datalayout = "e-m:e-p270:32:32-p271:32:32-p272:64:64-i64:64-i128:128-f80:128-n8:16:32:64-S128"
target triple = "x86_64-pc-linux-gnu"

%struct._crawler_module_t = type { ptr, %struct.crawler_client_t, ptr, i32 }
%struct.crawler_client_t = type { ptr, i32, i32, i32, ptr }

@active_crawler_mod = dso_local global %struct._crawler_module_t zeroinitializer, align 8
@lru_crawler_initialized = internal global i32 0, align 4
@storage = internal global ptr null, align 8

; Function Attrs: nounwind uwtable
define dso_local i32 @init_lru_crawler(ptr noundef %0) #0 {
  %2 = alloca ptr, align 8
  store ptr %0, ptr %2, align 8, !tbaa !9
  %3 = load i32, ptr @lru_crawler_initialized, align 4, !tbaa !20
  %4 = icmp eq i32 %3, 0
  br i1 %4, label %5, label %7

5:                                                ; preds = %1
  %6 = load ptr, ptr %2, align 8, !tbaa !9
  store ptr %6, ptr @storage, align 8, !tbaa !9
  store ptr null, ptr getelementptr inbounds nuw (%struct._crawler_module_t, ptr @active_crawler_mod, i32 0, i32 1), align 8, !tbaa !58
  store ptr null, ptr getelementptr inbounds nuw (%struct._crawler_module_t, ptr @active_crawler_mod, i32 0, i32 2), align 8, !tbaa !64
  store ptr null, ptr @active_crawler_mod, align 8, !tbaa !16
  store i32 1, ptr @lru_crawler_initialized, align 4, !tbaa !20
  br label %7

7:                                                ; preds = %5, %1
  ret i32 0
}