; Function Attrs: mustprogress nofree norecurse nosync nounwind willreturn memory(readwrite, argmem: none, inaccessiblemem: none) uwtable
define dso_local noundef i32 @init_lru_crawler(ptr noundef %0) local_unnamed_addr #9 {
  %.b = load i1, ptr @lru_crawler_initialized, align 4
  br i1 %.b, label %3, label %2

2:                                                ; preds = %1
  store ptr %0, ptr @storage, align 8, !tbaa !25
  store ptr null, ptr getelementptr inbounds nuw (i8, ptr @active_crawler_mod, i64 40), align 8, !tbaa !55
  tail call void @llvm.memset.p0.i64(ptr noundef nonnull align 8 dereferenceable(16) @active_crawler_mod, i8 0, i64 16, i1 false)
  store i1 true, ptr @lru_crawler_initialized, align 4
  br label %3

3:                                                ; preds = %2, %1
  ret i32 0
}